Certificate:
    Data:
        Version: 3 (0x2)
        Serial Number: 4100 (0x1004)
        Signature Algorithm: sha256WithRSAEncryption
        Issuer: C=US, ST=California, L=San Francisco, O=BSidesSF CTF, OU=Auth CA
        Validity
            Not Before: Mar  3 01:37:37 2021 GMT
            Not After : Mar 13 01:37:37 2022 GMT
        Subject: O=BSidesSF CTF, OU=client, CN=client
        Subject Public Key Info:
            Public Key Algorithm: rsaEncryption
                RSA Public-Key: (2048 bit)
                Modulus:
                    00:c3:03:4e:76:f7:d2:b2:40:45:8b:f4:cf:ba:f1:
                    c8:43:9d:25:af:2a:7d:dd:fb:d5:d8:4a:b5:3f:33:
                    88:4c:85:1f:54:f2:ce:1b:1c:94:57:fb:f3:ac:82:
                    25:59:b4:48:01:8a:2c:83:04:76:ed:81:39:f3:7c:
                    b9:b1:a4:2b:0a:2d:97:13:99:19:55:87:f6:f8:0f:
                    cd:42:c2:d3:9f:04:ae:b2:77:46:37:93:e2:db:af:
                    48:b0:4e:65:65:ef:20:06:6c:16:7b:f2:16:28:9c:
                    7f:9b:bb:0f:8c:bd:cb:13:9d:0a:63:7e:7c:62:33:
                    5b:82:5b:a1:6e:94:62:94:35:4a:e2:13:d7:1b:59:
                    2f:86:ff:7d:8a:9b:1c:5d:5d:44:0f:8e:af:9c:67:
                    60:3b:a7:52:40:67:ec:14:7d:b8:90:2f:19:26:c0:
                    d1:c9:b0:8d:40:1d:c0:8e:c3:fc:54:43:4a:1a:19:
                    e9:9b:6d:37:2e:b7:8f:87:05:f2:29:a4:2c:34:35:
                    17:ee:7c:d8:71:97:53:90:5d:41:12:d6:29:71:b9:
                    02:31:ff:a1:22:9c:e0:db:6f:4f:e2:96:ee:cd:8c:
                    1d:39:73:43:d7:ea:6e:ee:91:e3:1b:cd:ea:07:58:
                    ab:22:37:0d:1f:50:c5:23:f0:b8:51:db:5b:6c:d8:
                    1c:49
                Exponent: 65537 (0x10001)
        X509v3 extensions:
            X509v3 Basic Constraints: critical
                CA:FALSE
            X509v3 Subject Key Identifier: 
                86:67:F4:74:87:4D:C4:C5:A7:D0:E3:37:9C:09:3A:7D:A9:6B:26:DD
            X509v3 Authority Key Identifier: 
                keyid:AD:3E:C6:FE:3A:2B:AB:23:D6:CD:51:1B:58:66:0B:FD:05:1B:07:FF
                DirName:/C=US/ST=California/L=San Francisco/O=BSidesSF CTF/OU=Auth CA
                serial:6A:82:13:58:A7:0B:EB:FD:D5:FF:15:18:74:DE:D3:1C:50:0B:3F:0A

            X509v3 Key Usage: critical
                Digital Signature, Key Encipherment
            X509v3 Subject Alternative Name: 
                DNS:client.canuauth-4161b8b9.challenges.bsidessf.net
    Signature Algorithm: sha256WithRSAEncryption
         35:10:8c:75:93:d7:5b:84:af:25:17:f5:be:71:00:c4:42:52:
         1e:9a:00:71:92:cf:54:0a:6e:ff:72:23:2a:27:3f:1a:22:0e:
         ea:f8:fa:aa:ac:76:36:bc:7c:09:da:80:db:90:38:b9:e2:df:
         45:26:e8:54:95:47:af:30:e6:da:11:27:78:cf:0f:32:aa:8d:
         1d:02:68:d9:70:a0:ff:1f:1a:f9:b8:b2:c9:84:ef:1e:e4:ac:
         e0:5c:66:2b:68:fc:95:84:ac:9f:0f:c6:94:75:77:b3:3e:b2:
         0b:24:b9:1c:45:dc:58:36:35:2f:a1:a7:f1:f0:cd:ce:fe:a3:
         03:bf:9d:fe:98:ee:4c:87:f1:e9:fc:25:d4:13:c0:d1:cc:b0:
         3d:06:dd:3e:e1:f7:c7:ec:91:99:73:c9:fa:d6:b4:5a:f2:61:
         27:08:83:ba:88:52:d2:cf:05:bc:25:a0:b0:55:38:ad:68:8a:
         75:b9:26:22:8e:6f:8e:6c:3c:3f:0b:51:5e:16:3a:e5:b0:26:
         c7:11:f0:22:7f:24:11:be:47:b5:95:4a:f8:1e:25:dc:f9:c5:
         d1:89:06:05:44:79:f2:74:5b:fa:4d:f3:b5:ef:d4:83:b7:9c:
         37:78:5f:71:27:36:9e:a9:a4:c7:62:d2:89:57:ed:77:14:12:
         d0:f1:d5:e9
-----BEGIN CERTIFICATE-----
MIIEOzCCAyOgAwIBAgICEAQwDQYJKoZIhvcNAQELBQAwYzELMAkGA1UEBhMCVVMx
EzARBgNVBAgMCkNhbGlmb3JuaWExFjAUBgNVBAcMDVNhbiBGcmFuY2lzY28xFTAT
BgNVBAoMDEJTaWRlc1NGIENURjEQMA4GA1UECwwHQXV0aCBDQTAeFw0yMTAzMDMw
MTM3MzdaFw0yMjAzMTMwMTM3MzdaMDkxFTATBgNVBAoMDEJTaWRlc1NGIENURjEP
MA0GA1UECwwGY2xpZW50MQ8wDQYDVQQDDAZjbGllbnQwggEiMA0GCSqGSIb3DQEB
AQUAA4IBDwAwggEKAoIBAQDDA05299KyQEWL9M+68chDnSWvKn3d+9XYSrU/M4hM
hR9U8s4bHJRX+/OsgiVZtEgBiiyDBHbtgTnzfLmxpCsKLZcTmRlVh/b4D81CwtOf
BK6yd0Y3k+Lbr0iwTmVl7yAGbBZ78hYonH+buw+MvcsTnQpjfnxiM1uCW6FulGKU
NUriE9cbWS+G/32KmxxdXUQPjq+cZ2A7p1JAZ+wUfbiQLxkmwNHJsI1AHcCOw/xU
Q0oaGembbTcut4+HBfIppCw0NRfufNhxl1OQXUES1ilxuQIx/6EinODbb0/ilu7N
jB05c0PX6m7ukeMbzeoHWKsiNw0fUMUj8LhR21ts2BxJAgMBAAGjggEhMIIBHTAM
BgNVHRMBAf8EAjAAMB0GA1UdDgQWBBSGZ/R0h03ExafQ4zecCTp9qWsm3TCBoAYD
VR0jBIGYMIGVgBStPsb+OiurI9bNURtYZgv9BRsH/6FnpGUwYzELMAkGA1UEBhMC
VVMxEzARBgNVBAgMCkNhbGlmb3JuaWExFjAUBgNVBAcMDVNhbiBGcmFuY2lzY28x
FTATBgNVBAoMDEJTaWRlc1NGIENURjEQMA4GA1UECwwHQXV0aCBDQYIUaoITWKcL
6/3V/xUYdN7THFALPwowDgYDVR0PAQH/BAQDAgWgMDsGA1UdEQQ0MDKCMGNsaWVu
dC5jYW51YXV0aC00MTYxYjhiOS5jaGFsbGVuZ2VzLmJzaWRlc3NmLm5ldDANBgkq
hkiG9w0BAQsFAAOCAQEANRCMdZPXW4SvJRf1vnEAxEJSHpoAcZLPVApu/3IjKic/
GiIO6vj6qqx2Nrx8CdqA25A4ueLfRSboVJVHrzDm2hEneM8PMqqNHQJo2XCg/x8a
+biyyYTvHuSs4FxmK2j8lYSsnw/GlHV3sz6yCyS5HEXcWDY1L6Gn8fDNzv6jA7+d
/pjuTIfx6fwl1BPA0cywPQbdPuH3x+yRmXPJ+ta0WvJhJwiDuohS0s8FvCWgsFU4
rWiKdbkmIo5vjmw8PwtRXhY65bAmxxHwIn8kEb5HtZVK+B4l3PnF0YkGBUR58nRb
+k3zte/Ug7ecN3hfcSc2nqmkx2LSiVftdxQS0PHV6Q==
-----END CERTIFICATE-----
